target datalayout = "e-m:e-p270:32:32-p271:32:32-p272:64:64-i64:64-i128:128-f80:128-n8:16:32:64-S128"
target triple = "x86_64-unknown-linux-gnu"

%"class.EA::StdC::Callback" = type { ptr, i64, i64, ptr, ptr, ptr, i32, %"class.EA::Thread::AtomicInt", i8, i8, i64, i64 }
%"class.EA::Thread::AtomicInt" = type { %"struct.std::atomic" }
%"struct.std::atomic" = type { %"struct.std::__atomic_base" }
%"struct.std::__atomic_base" = type { i32 }

; Function Attrs: mustprogress uwtable
define dso_local void @_ZN2EA4StdC8Callback4CallEmm(ptr noundef nonnull align 8 dereferenceable(80) %this, i64 noundef %absoluteValue, i64 noundef %deltaValue) #2 align 2 {
entry:
  %this.addr = alloca ptr, align 8
  %absoluteValue.addr = alloca i64, align 8
  %deltaValue.addr = alloca i64, align 8
  store ptr %this, ptr %this.addr, align 8
  store i64 %absoluteValue, ptr %absoluteValue.addr, align 8
  store i64 %deltaValue, ptr %deltaValue.addr, align 8
  %this1 = load ptr, ptr %this.addr, align 8
  %mpFunction = getelementptr inbounds %"class.EA::StdC::Callback", ptr %this1, i32 0, i32 4
  %0 = load ptr, ptr %mpFunction, align 8
  %tobool = icmp ne ptr %0, null
  br i1 %tobool, label %if.then, label %if.end

if.then:                                          ; preds = %entry
  %mpFunction2 = getelementptr inbounds %"class.EA::StdC::Callback", ptr %this1, i32 0, i32 4
  %1 = load ptr, ptr %mpFunction2, align 8
  %mpFunctionArg = getelementptr inbounds %"class.EA::StdC::Callback", ptr %this1, i32 0, i32 5
  %2 = load ptr, ptr %mpFunctionArg, align 8
  %3 = load i64, ptr %absoluteValue.addr, align 8
  %4 = load i64, ptr %deltaValue.addr, align 8
  call void %1(ptr noundef %this1, ptr noundef %2, i64 noundef %3, i64 noundef %4)
  br label %if.end

if.end:                                           ; preds = %if.then, %entry
  ret void
}

; Function Attrs: mustprogress uwtable
define dso_local void @_ZN2EA4StdC8Callback14AddRefCallbackEv(ptr noundef nonnull align 8 dereferenceable(80) %this) #2 align 2 {
entry:
  %this.addr = alloca ptr, align 8
  store ptr %this, ptr %this.addr, align 8
  %this1 = load ptr, ptr %this.addr, align 8
  call void @_ZN2EA4StdC8Callback4CallEmm(ptr noundef nonnull align 8 dereferenceable(80) %this1, i64 noundef 0, i64 noundef 0)
  ret void
}

; Function Attrs: mustprogress uwtable
define dso_local noundef zeroext i1 @_ZN2EA4StdC8Callback15SetFunctionInfoEPFvPS1_PvmmES3_b(ptr noundef nonnull align 8 dereferenceable(80) %this, ptr noundef %pCallbackFunction, ptr noundef %pCallbackArgument, i1 noundef zeroext %bEnableRefCount) #2 align 2 {
entry:
  %this.addr = alloca ptr, align 8
  %pCallbackFunction.addr = alloca ptr, align 8
  %pCallbackArgument.addr = alloca ptr, align 8
  %bEnableRefCount.addr = alloca i8, align 1
  store ptr %this, ptr %this.addr, align 8
  store ptr %pCallbackFunction, ptr %pCallbackFunction.addr, align 8
  store ptr %pCallbackArgument, ptr %pCallbackArgument.addr, align 8
  %frombool = zext i1 %bEnableRefCount to i8
  store i8 %frombool, ptr %bEnableRefCount.addr, align 1
  %this1 = load ptr, ptr %this.addr, align 8
  %0 = load ptr, ptr %pCallbackFunction.addr, align 8
  %tobool = icmp ne ptr %0, null
  br i1 %tobool, label %if.then, label %if.else

if.then:                                          ; preds = %entry
  %1 = load ptr, ptr %pCallbackFunction.addr, align 8
  %mpFunction = getelementptr inbounds %"class.EA::StdC::Callback", ptr %this1, i32 0, i32 4
  store ptr %1, ptr %mpFunction, align 8
  %2 = load ptr, ptr %pCallbackArgument.addr, align 8
  %mpFunctionArg = getelementptr inbounds %"class.EA::StdC::Callback", ptr %this1, i32 0, i32 5
  store ptr %2, ptr %mpFunctionArg, align 8
  br label %if.end

if.else:                                          ; preds = %entry
  %mpFunction2 = getelementptr inbounds %"class.EA::StdC::Callback", ptr %this1, i32 0, i32 4
  store ptr @_ZN2EA4StdCL15DefaultCallbackEPNS0_8CallbackEPvmm, ptr %mpFunction2, align 8
  %mpFunctionArg3 = getelementptr inbounds %"class.EA::StdC::Callback", ptr %this1, i32 0, i32 5
  store ptr %this1, ptr %mpFunctionArg3, align 8
  br label %if.end

if.end:                                           ; preds = %if.else, %if.then
  %3 = load i8, ptr %bEnableRefCount.addr, align 1
  %tobool4 = trunc i8 %3 to i1
  br i1 %tobool4, label %if.then5, label %if.end6

if.then5:                                         ; preds = %if.end
  %mbEnableRefCount = getelementptr inbounds %"class.EA::StdC::Callback", ptr %this1, i32 0, i32 9
  store i8 1, ptr %mbEnableRefCount, align 1
  call void @_ZN2EA4StdC8Callback14AddRefCallbackEv(ptr noundef nonnull align 8 dereferenceable(80) %this1)
  br label %if.end6

if.end6:                                          ; preds = %if.then5, %if.end
  ret i1 true
}