; Function Attrs: mustprogress uwtable
define dso_local noundef zeroext i1 @_ZN2EA4StdC8Callback15SetFunctionInfoEPFvPS1_PvmmES3_b(ptr noundef nonnull align 8 dereferenceable(80) %this, ptr noundef %pCallbackFunction, ptr noundef %pCallbackArgument, i1 noundef zeroext %bEnableRefCount) local_unnamed_addr #1 align 2 {
entry:
  %tobool.not = icmp eq ptr %pCallbackFunction, null
  %spec.select = select i1 %tobool.not, ptr @_ZN2EA4StdCL15DefaultCallbackEPNS0_8CallbackEPvmm, ptr %pCallbackFunction
  %spec.select2 = select i1 %tobool.not, ptr %this, ptr %pCallbackArgument
  %0 = getelementptr inbounds i8, ptr %this, i64 32
  store ptr %spec.select, ptr %0, align 8
  %1 = getelementptr inbounds i8, ptr %this, i64 40
  store ptr %spec.select2, ptr %1, align 8
  br i1 %bEnableRefCount, label %if.then.i.i, label %if.end6

if.then.i.i:                                      ; preds = %entry
  %mbEnableRefCount = getelementptr inbounds i8, ptr %this, i64 57
  store i8 1, ptr %mbEnableRefCount, align 1
  tail call void %spec.select(ptr noundef nonnull %this, ptr noundef %spec.select2, i64 noundef 0, i64 noundef 0)
  br label %if.end6

if.end6:                                          ; preds = %if.then.i.i, %entry
  ret i1 true
}